; Function Attrs: null_pointer_is_valid sspstrong uwtable
define internal signext i16 @dissect_link_action_rsp(ptr noundef %0, i16 noundef signext %1, ptr noundef %2) #0 {
  %4 = load i32, ptr @hf_link_type, align 4
  %5 = sext i16 %1 to i32
  %6 = tail call ptr @proto_tree_add_item(ptr noundef %2, i32 noundef %4, ptr noundef %0, i32 noundef %5, i32 noundef 1, i32 noundef 0)
  %7 = add i16 %1, 1
  %8 = tail call fastcc signext i16 @dissect_link_addr(ptr noundef %0, i16 noundef signext %7, ptr noundef %2)
  %9 = load i32, ptr @hf_link_ac_result, align 4
  %10 = sext i16 %8 to i32
  %11 = tail call ptr @proto_tree_add_item(ptr noundef %2, i32 noundef %9, ptr noundef %0, i32 noundef %10, i32 noundef 1, i32 noundef 0)
  %12 = add i16 %8, 1
  %13 = sext i16 %12 to i32
  %14 = tail call zeroext i8 @tvb_get_uint8(ptr noundef %0, i32 noundef %13)
  %.not = icmp eq i8 %14, 0
  %15 = add i16 %8, 2
  br i1 %.not, label %dissect_mih_list.exit, label %16

16:                                               ; preds = %3
  %17 = sext i16 %15 to i32
  %18 = tail call zeroext i8 @tvb_get_uint8(ptr noundef %0, i32 noundef %17)
  %19 = add i16 %8, 3
  %.not.i = icmp eq i8 %18, 0
  br i1 %.not.i, label %dissect_mih_list.exit, label %.lr.ph.i

.lr.ph.i:                                         ; preds = %16, %.lr.ph.i
  %.012.i = phi i16 [ %35, %.lr.ph.i ], [ %19, %16 ]
  %.01011.i = phi i8 [ %36, %.lr.ph.i ], [ 0, %16 ]
  %20 = tail call fastcc signext i16 @dissect_link_addr(ptr noundef %0, i16 noundef signext %.012.i, ptr noundef %2)
  %21 = sext i16 %20 to i32
  %22 = tail call zeroext i8 @tvb_get_uint8(ptr noundef %0, i32 noundef %21)
  %23 = load i32, ptr @hf_network_id, align 4
  %24 = add nsw i32 %21, 1
  %25 = zext i8 %22 to i32
  %26 = tail call ptr @proto_tree_add_item(ptr noundef %2, i32 noundef %23, ptr noundef %0, i32 noundef %24, i32 noundef %25, i32 noundef 0)
  %27 = zext i8 %22 to i16
  %28 = add i16 %20, %27
  %29 = add i16 %28, 1
  %30 = sext i16 %29 to i32
  %31 = tail call zeroext i8 @tvb_get_uint8(ptr noundef %0, i32 noundef %30)
  %.not.i14 = icmp eq i8 %31, 0
  %32 = add nsw i32 %30, 1
  %hf_sig_strength_dbm.val.i = load i32, ptr @hf_sig_strength_dbm, align 4
  %hf_sig_strength_per.val.i = load i32, ptr @hf_sig_strength_per, align 4
  %33 = select i1 %.not.i14, i32 %hf_sig_strength_dbm.val.i, i32 %hf_sig_strength_per.val.i
  %34 = tail call ptr @proto_tree_add_item(ptr noundef %2, i32 noundef %33, ptr noundef %0, i32 noundef %32, i32 noundef 1, i32 noundef 0)
  %35 = add i16 %28, 3
  %36 = add nuw i8 %.01011.i, 1
  %exitcond.not.i = icmp eq i8 %36, %18
  br i1 %exitcond.not.i, label %dissect_mih_list.exit, label %.lr.ph.i, !llvm.loop !11

dissect_mih_list.exit:                            ; preds = %.lr.ph.i, %3, %16
  %.0 = phi i16 [ %19, %16 ], [ %15, %3 ], [ %35, %.lr.ph.i ]
  ret i16 %.0
}